target datalayout = "e-m:e-p270:32:32-p271:32:32-p272:64:64-i64:64-i128:128-f80:128-n8:16:32:64-S128"
target triple = "x86_64-pc-linux-gnu"

%struct.git_istream = type { ptr, ptr, ptr, i64, %struct.git_zstream, i32, %union.anon }
%struct.git_zstream = type { %struct.z_stream_s, i64, i64, i64, i64, ptr, ptr }
%struct.z_stream_s = type { ptr, i32, i64, ptr, i32, i64, ptr, ptr, ptr, ptr, ptr, i32, i64, i64 }
%union.anon = type { %struct.filtered_istream }
%struct.filtered_istream = type { ptr, ptr, [16384 x i8], [16384 x i8], i32, i32, i32, i32, i32 }
%struct.anon.1 = type { ptr, i64 }

; Function Attrs: nounwind uwtable
define internal i32 @open_istream_pack_non_delta(ptr noundef %0, ptr noundef %1, ptr noundef %2, ptr noundef %3) #0 {
  %5 = alloca i32, align 4
  %6 = alloca ptr, align 8
  %7 = alloca ptr, align 8
  %8 = alloca ptr, align 8
  %9 = alloca ptr, align 8
  %10 = alloca ptr, align 8
  %11 = alloca i32, align 4
  %12 = alloca i32, align 4
  store ptr %0, ptr %6, align 8, !tbaa !4
  store ptr %1, ptr %7, align 8, !tbaa !21
  store ptr %2, ptr %8, align 8, !tbaa !23
  store ptr %3, ptr %9, align 8, !tbaa !18
  call void @llvm.lifetime.start.p0(i64 8, ptr %10) #8
  call void @llvm.lifetime.start.p0(i64 4, ptr %11) #8
  store ptr null, ptr %10, align 8, !tbaa !85
  %13 = load ptr, ptr %6, align 8, !tbaa !4
  %14 = getelementptr inbounds nuw %struct.git_istream, ptr %13, i32 0, i32 6
  %15 = getelementptr inbounds nuw %struct.anon.1, ptr %14, i32 0, i32 0
  %16 = load ptr, ptr %15, align 8, !tbaa !69
  %17 = load ptr, ptr %6, align 8, !tbaa !4
  %18 = getelementptr inbounds nuw %struct.git_istream, ptr %17, i32 0, i32 6
  %19 = getelementptr inbounds nuw %struct.anon.1, ptr %18, i32 0, i32 1
  %20 = load ptr, ptr %6, align 8, !tbaa !4
  %21 = getelementptr inbounds nuw %struct.git_istream, ptr %20, i32 0, i32 3
  %22 = call i32 @unpack_object_header(ptr noundef %16, ptr noundef %10, ptr noundef %19, ptr noundef %21)
  store i32 %22, ptr %11, align 4, !tbaa !17
  call void @unuse_pack(ptr noundef %10)
  %23 = load i32, ptr %11, align 4, !tbaa !17
  switch i32 %23, label %24 [
    i32 1, label %25
    i32 2, label %25
    i32 3, label %25
    i32 4, label %25
  ]

24:                                               ; preds = %4
  store i32 -1, ptr %5, align 4
  store i32 1, ptr %12, align 4
  br label %33

25:                                               ; preds = %4, %4, %4, %4
  br label %26

26:                                               ; preds = %25
  %27 = load ptr, ptr %6, align 8, !tbaa !4
  %28 = getelementptr inbounds nuw %struct.git_istream, ptr %27, i32 0, i32 5
  store i32 0, ptr %28, align 8, !tbaa !84
  %29 = load ptr, ptr %6, align 8, !tbaa !4
  %30 = getelementptr inbounds nuw %struct.git_istream, ptr %29, i32 0, i32 1
  store ptr @close_istream_pack_non_delta, ptr %30, align 8, !tbaa !9
  %31 = load ptr, ptr %6, align 8, !tbaa !4
  %32 = getelementptr inbounds nuw %struct.git_istream, ptr %31, i32 0, i32 2
  store ptr @read_istream_pack_non_delta, ptr %32, align 8, !tbaa !20
  store i32 0, ptr %5, align 4
  store i32 1, ptr %12, align 4
  br label %33

33:                                               ; preds = %26, %24
  call void @llvm.lifetime.end.p0(i64 4, ptr %11) #8
  call void @llvm.lifetime.end.p0(i64 8, ptr %10) #8
  %34 = load i32, ptr %5, align 4
  ret i32 %34
}