; Function Attrs: nounwind uwtable
define internal range(i32 -1, 1) i32 @open_istream_pack_non_delta(ptr noundef %0, ptr readnone captures(none) %1, ptr readnone captures(none) %2, ptr readnone captures(none) %3) #0 {
  %5 = alloca ptr, align 8
  call void @llvm.lifetime.start.p0(i64 8, ptr nonnull %5) #11
  store ptr null, ptr %5, align 8, !tbaa !73
  %6 = getelementptr inbounds nuw i8, ptr %0, i64 200
  %7 = load ptr, ptr %6, align 8, !tbaa !56
  %8 = getelementptr inbounds nuw i8, ptr %0, i64 208
  %9 = getelementptr inbounds nuw i8, ptr %0, i64 24
  %10 = call i32 @unpack_object_header(ptr noundef %7, ptr noundef nonnull %5, ptr noundef nonnull %8, ptr noundef nonnull %9) #11
  call void @unuse_pack(ptr noundef nonnull %5) #11
  %.off = add i32 %10, -1
  %switch = icmp ult i32 %.off, 4
  br i1 %switch, label %11, label %15

11:                                               ; preds = %4
  %12 = getelementptr inbounds nuw i8, ptr %0, i64 192
  store i32 0, ptr %12, align 8, !tbaa !72
  %13 = getelementptr inbounds nuw i8, ptr %0, i64 8
  store ptr @close_istream_pack_non_delta, ptr %13, align 8, !tbaa !4
  %14 = getelementptr inbounds nuw i8, ptr %0, i64 16
  store ptr @read_istream_pack_non_delta, ptr %14, align 8, !tbaa !15
  br label %15

15:                                               ; preds = %4, %11
  %.0 = phi i32 [ 0, %11 ], [ -1, %4 ]
  call void @llvm.lifetime.end.p0(i64 8, ptr nonnull %5) #11
  ret i32 %.0
}